; Function Attrs: mustprogress nounwind uwtable
define internal fastcc void @_ZNSt4pairIN5Yosys5RTLIL8IdStringEN12_GLOBAL__N_16LUTPinEED2Ev(ptr nocapture noundef nonnull readonly align 4 dereferenceable(12) %0) unnamed_addr #3 align 2 personality ptr @__gxx_personality_v0 {
  %2 = getelementptr inbounds i8, ptr %0, i64 8
  %.val = load i32, ptr %2, align 4
  %3 = load i8, ptr @_ZN5Yosys5RTLIL8IdString17destruct_guard_okE, align 1
  %4 = and i8 %3, 1
  %5 = icmp ne i8 %4, 0
  %6 = icmp ne i32 %.val, 0
  %or.cond.i.i.i = and i1 %6, %5
  br i1 %or.cond.i.i.i, label %7, label %_ZN12_GLOBAL__N_16LUTPinD2Ev.exit

7:                                                ; preds = %1
  %8 = sext i32 %.val to i64
  %9 = load ptr, ptr @_ZN5Yosys5RTLIL8IdString24global_refcount_storage_E, align 8
  %10 = getelementptr inbounds i32, ptr %9, i64 %8
  %11 = load i32, ptr %10, align 4
  %12 = add nsw i32 %11, -1
  store i32 %12, ptr %10, align 4
  %13 = icmp sgt i32 %11, 1
  br i1 %13, label %_ZN12_GLOBAL__N_16LUTPinD2Ev.exit, label %14

14:                                               ; preds = %7
  invoke void @_ZN5Yosys5RTLIL8IdString14free_referenceEi(i32 noundef %.val)
          to label %_ZN12_GLOBAL__N_16LUTPinD2Ev.exit unwind label %15

15:                                               ; preds = %14
  %16 = landingpad { ptr, i32 }
          catch ptr null
  %17 = extractvalue { ptr, i32 } %16, 0
  tail call void @__clang_call_terminate(ptr %17) #22
  unreachable

_ZN12_GLOBAL__N_16LUTPinD2Ev.exit:                ; preds = %1, %7, %14
  %18 = load i32, ptr %0, align 4
  %19 = load i8, ptr @_ZN5Yosys5RTLIL8IdString17destruct_guard_okE, align 1
  %20 = and i8 %19, 1
  %21 = icmp ne i8 %20, 0
  %22 = icmp ne i32 %18, 0
  %or.cond.i.i = and i1 %22, %21
  br i1 %or.cond.i.i, label %23, label %_ZN5Yosys5RTLIL8IdStringD2Ev.exit

23:                                               ; preds = %_ZN12_GLOBAL__N_16LUTPinD2Ev.exit
  %24 = sext i32 %18 to i64
  %25 = load ptr, ptr @_ZN5Yosys5RTLIL8IdString24global_refcount_storage_E, align 8
  %26 = getelementptr inbounds i32, ptr %25, i64 %24
  %27 = load i32, ptr %26, align 4
  %28 = add nsw i32 %27, -1
  store i32 %28, ptr %26, align 4
  %29 = icmp sgt i32 %27, 1
  br i1 %29, label %_ZN5Yosys5RTLIL8IdStringD2Ev.exit, label %30

30:                                               ; preds = %23
  invoke void @_ZN5Yosys5RTLIL8IdString14free_referenceEi(i32 noundef %18)
          to label %_ZN5Yosys5RTLIL8IdStringD2Ev.exit unwind label %31

31:                                               ; preds = %30
  %32 = landingpad { ptr, i32 }
          catch ptr null
  %33 = extractvalue { ptr, i32 } %32, 0
  tail call void @__clang_call_terminate(ptr %33) #22
  unreachable

_ZN5Yosys5RTLIL8IdStringD2Ev.exit:                ; preds = %_ZN12_GLOBAL__N_16LUTPinD2Ev.exit, %23, %30
  ret void
}